target datalayout = "e-m:e-p270:32:32-p271:32:32-p272:64:64-i64:64-i128:128-f80:128-n8:16:32:64-S128"
target triple = "x86_64-pc-linux-gnu"

%struct.H5C_class_t = type { i32, ptr, i32, i32, ptr, ptr, ptr, ptr, ptr, ptr, ptr, ptr, ptr, ptr }
%struct.H5B2_leaf_t = type { %struct.H5C_cache_entry_t, ptr, ptr, i16, ptr, ptr, i64 }
%struct.H5C_cache_entry_t = type { ptr, i64, i64, ptr, i8, ptr, i8, i8, i8, i8, i32, i8, i8, i8, i8, i8, i32, ptr, i32, i32, i32, i32, i32, i8, i8, ptr, ptr, ptr, ptr, ptr, ptr, i8, i32, i8, i64, ptr, i64, i64, i32, i8, i32, i32, i8, ptr, ptr, ptr }
%struct.H5B2_hdr_t = type { %struct.H5C_cache_entry_t, %struct.H5B2_node_ptr_t, i8, i8, i32, i32, i16, i8, ptr, i64, i64, i64, i64, i8, i8, i8, ptr, ptr, ptr, ptr, ptr, ptr, ptr, i8, ptr, ptr, i64, ptr, ptr }
%struct.H5B2_node_ptr_t = type { i64, i16, i64 }
%struct.H5B2_class_t = type { i32, ptr, i64, ptr, ptr, ptr, ptr, ptr, ptr, ptr }

@.str.1 = private unnamed_addr constant [102 x i8] c"generated/home/dtcxzyw/WorkSpace/Projects/compilers/llvm-opt-benchmark/bench/hdf5/hdf5/src/H5B2leaf.c\00", align 1
@H5E_BTREE_g = external global i64, align 8
@H5AC_BT2_LEAF = external constant [1 x %struct.H5C_class_t], align 16
@H5E_CANTPROTECT_g = external global i64, align 8
@.str.11 = private unnamed_addr constant [35 x i8] c"unable to protect B-tree leaf node\00", align 1
@H5E_CANTCOPY_g = external global i64, align 8
@.str.13 = private unnamed_addr constant [27 x i8] c"unable to shadow leaf node\00", align 1
@H5E_CANTUNPROTECT_g = external global i64, align 8
@.str.25 = private unnamed_addr constant [35 x i8] c"unable to release leaf B-tree node\00", align 1
@H5E_CANTDELETE_g = external global i64, align 8
@.str.30 = private unnamed_addr constant [39 x i8] c"unable to remove record into leaf node\00", align 1
@__func__.H5B2__remove_leaf_by_idx = private unnamed_addr constant [25 x i8] c"H5B2__remove_leaf_by_idx\00", align 1

; Function Attrs: nounwind uwtable
define i32 @H5B2__remove_leaf_by_idx(ptr noundef %0, ptr noundef %1, i32 noundef %2, ptr noundef %3, i32 noundef %4, ptr noundef %5, ptr noundef %6) #0 {
  %8 = alloca ptr, align 8
  %9 = alloca ptr, align 8
  %10 = alloca i32, align 4
  %11 = alloca ptr, align 8
  %12 = alloca i32, align 4
  %13 = alloca ptr, align 8
  %14 = alloca ptr, align 8
  %15 = alloca ptr, align 8
  %16 = alloca i64, align 8
  %17 = alloca i32, align 4
  %18 = alloca i32, align 4
  %19 = alloca i8, align 1
  store ptr %0, ptr %8, align 8
  store ptr %1, ptr %9, align 8
  store i32 %2, ptr %10, align 4
  store ptr %3, ptr %11, align 8
  store i32 %4, ptr %12, align 4
  store ptr %5, ptr %13, align 8
  store ptr %6, ptr %14, align 8
  store i64 -1, ptr %16, align 8
  store i32 0, ptr %17, align 4
  store i32 0, ptr %18, align 4
  store i8 0, ptr %19, align 1
  %20 = load ptr, ptr %8, align 8
  %21 = load ptr, ptr %11, align 8
  %22 = load ptr, ptr %9, align 8
  %23 = call ptr @H5B2__protect_leaf(ptr noundef %20, ptr noundef %21, ptr noundef %22, i1 noundef zeroext false, i32 noundef 0)
  store ptr %23, ptr %15, align 8
  %24 = icmp eq ptr null, %23
  br i1 %24, label %25, label %40

25:                                               ; preds = %7
  br label %26

26:                                               ; preds = %25
  br label %27

27:                                               ; preds = %26
  br label %28

28:                                               ; preds = %27
  %29 = load i64, ptr @H5E_BTREE_g, align 8
  %30 = load i64, ptr @H5E_CANTPROTECT_g, align 8
  %31 = call i32 (ptr, ptr, i32, i64, i64, ptr, ...) @H5E_printf_stack(ptr noundef @.str.1, ptr noundef @__func__.H5B2__remove_leaf_by_idx, i32 noundef 860, i64 noundef %29, i64 noundef %30, ptr noundef @.str.11)
  br label %32

32:                                               ; preds = %28
  store i8 1, ptr %19, align 1
  %33 = load i8, ptr %19, align 1
  %34 = trunc i8 %33 to i1
  %35 = zext i1 %34 to i8
  store i8 %35, ptr %19, align 1
  br label %36

36:                                               ; preds = %32
  br label %37

37:                                               ; preds = %36
  store i32 -1, ptr %18, align 4
  br label %237

38:                                               ; No predecessors!
  br label %39

39:                                               ; preds = %38
  br label %40

40:                                               ; preds = %39, %7
  %41 = load ptr, ptr %9, align 8
  %42 = getelementptr inbounds %struct.H5B2_node_ptr_t, ptr %41, i32 0, i32 0
  %43 = load i64, ptr %42, align 8
  store i64 %43, ptr %16, align 8
  %44 = load i32, ptr %10, align 4
  %45 = icmp ne i32 3, %44
  br i1 %45, label %46, label %98

46:                                               ; preds = %40
  %47 = load i32, ptr %12, align 4
  %48 = icmp eq i32 %47, 0
  br i1 %48, label %49, label %69

49:                                               ; preds = %46
  %50 = load i32, ptr %10, align 4
  %51 = icmp eq i32 2, %50
  br i1 %51, label %55, label %52

52:                                               ; preds = %49
  %53 = load i32, ptr %10, align 4
  %54 = icmp eq i32 0, %53
  br i1 %54, label %55, label %68

55:                                               ; preds = %52, %49
  %56 = load ptr, ptr %8, align 8
  %57 = getelementptr inbounds %struct.H5B2_hdr_t, ptr %56, i32 0, i32 21
  %58 = load ptr, ptr %57, align 8
  %59 = icmp ne ptr %58, null
  br i1 %59, label %60, label %67

60:                                               ; preds = %55
  %61 = load ptr, ptr %8, align 8
  %62 = getelementptr inbounds %struct.H5B2_hdr_t, ptr %61, i32 0, i32 21
  %63 = load ptr, ptr %62, align 8
  %64 = call ptr @H5MM_xfree(ptr noundef %63)
  %65 = load ptr, ptr %8, align 8
  %66 = getelementptr inbounds %struct.H5B2_hdr_t, ptr %65, i32 0, i32 21
  store ptr %64, ptr %66, align 8
  br label %67

67:                                               ; preds = %60, %55
  br label %68

68:                                               ; preds = %67, %52
  br label %69

69:                                               ; preds = %68, %46
  %70 = load i32, ptr %12, align 4
  %71 = load ptr, ptr %15, align 8
  %72 = getelementptr inbounds %struct.H5B2_leaf_t, ptr %71, i32 0, i32 3
  %73 = load i16, ptr %72, align 8
  %74 = zext i16 %73 to i32
  %75 = sub nsw i32 %74, 1
  %76 = icmp eq i32 %70, %75
  br i1 %76, label %77, label %97

77:                                               ; preds = %69
  %78 = load i32, ptr %10, align 4
  %79 = icmp eq i32 1, %78
  br i1 %79, label %83, label %80

80:                                               ; preds = %77
  %81 = load i32, ptr %10, align 4
  %82 = icmp eq i32 0, %81
  br i1 %82, label %83, label %96

83:                                               ; preds = %80, %77
  %84 = load ptr, ptr %8, align 8
  %85 = getelementptr inbounds %struct.H5B2_hdr_t, ptr %84, i32 0, i32 22
  %86 = load ptr, ptr %85, align 8
  %87 = icmp ne ptr %86, null
  br i1 %87, label %88, label %95

88:                                               ; preds = %83
  %89 = load ptr, ptr %8, align 8
  %90 = getelementptr inbounds %struct.H5B2_hdr_t, ptr %89, i32 0, i32 22
  %91 = load ptr, ptr %90, align 8
  %92 = call ptr @H5MM_xfree(ptr noundef %91)
  %93 = load ptr, ptr %8, align 8
  %94 = getelementptr inbounds %struct.H5B2_hdr_t, ptr %93, i32 0, i32 22
  store ptr %92, ptr %94, align 8
  br label %95

95:                                               ; preds = %88, %83
  br label %96

96:                                               ; preds = %95, %80
  br label %97

97:                                               ; preds = %96, %69
  br label %98

98:                                               ; preds = %97, %40
  %99 = load ptr, ptr %13, align 8
  %100 = icmp ne ptr %99, null
  br i1 %100, label %101, label %133

101:                                              ; preds = %98
  %102 = load ptr, ptr %13, align 8
  %103 = load ptr, ptr %15, align 8
  %104 = getelementptr inbounds %struct.H5B2_leaf_t, ptr %103, i32 0, i32 2
  %105 = load ptr, ptr %104, align 8
  %106 = load ptr, ptr %8, align 8
  %107 = getelementptr inbounds %struct.H5B2_hdr_t, ptr %106, i32 0, i32 19
  %108 = load ptr, ptr %107, align 8
  %109 = load i32, ptr %12, align 4
  %110 = zext i32 %109 to i64
  %111 = getelementptr inbounds i64, ptr %108, i64 %110
  %112 = load i64, ptr %111, align 8
  %113 = getelementptr inbounds i8, ptr %105, i64 %112
  %114 = load ptr, ptr %14, align 8
  %115 = call i32 %102(ptr noundef %113, ptr noundef %114)
  %116 = icmp slt i32 %115, 0
  br i1 %116, label %117, label %132

117:                                              ; preds = %101
  br label %118

118:                                              ; preds = %117
  br label %119

119:                                              ; preds = %118
  br label %120

120:                                              ; preds = %119
  %121 = load i64, ptr @H5E_BTREE_g, align 8
  %122 = load i64, ptr @H5E_CANTDELETE_g, align 8
  %123 = call i32 (ptr, ptr, i32, i64, i64, ptr, ...) @H5E_printf_stack(ptr noundef @.str.1, ptr noundef @__func__.H5B2__remove_leaf_by_idx, i32 noundef 888, i64 noundef %121, i64 noundef %122, ptr noundef @.str.30)
  br label %124

124:                                              ; preds = %120
  store i8 1, ptr %19, align 1
  %125 = load i8, ptr %19, align 1
  %126 = trunc i8 %125 to i1
  %127 = zext i1 %126 to i8
  store i8 %127, ptr %19, align 1
  br label %128

128:                                              ; preds = %124
  br label %129

129:                                              ; preds = %128
  store i32 -1, ptr %18, align 4
  br label %237

130:                                              ; No predecessors!
  br label %131

131:                                              ; preds = %130
  br label %132

132:                                              ; preds = %131, %101
  br label %133

133:                                              ; preds = %132, %98
  %134 = load ptr, ptr %15, align 8
  %135 = getelementptr inbounds %struct.H5B2_leaf_t, ptr %134, i32 0, i32 3
  %136 = load i16, ptr %135, align 8
  %137 = add i16 %136, -1
  store i16 %137, ptr %135, align 8
  %138 = load ptr, ptr %15, align 8
  %139 = getelementptr inbounds %struct.H5B2_leaf_t, ptr %138, i32 0, i32 3
  %140 = load i16, ptr %139, align 8
  %141 = zext i16 %140 to i32
  %142 = icmp sgt i32 %141, 0
  br i1 %142, label %143, label %219

143:                                              ; preds = %133
  %144 = load ptr, ptr %8, align 8
  %145 = getelementptr inbounds %struct.H5B2_hdr_t, ptr %144, i32 0, i32 23
  %146 = load i8, ptr %145, align 8
  %147 = trunc i8 %146 to i1
  br i1 %147, label %148, label %172

148:                                              ; preds = %143
  %149 = load ptr, ptr %15, align 8
  %150 = load ptr, ptr %9, align 8
  %151 = call i32 @H5B2__shadow_leaf(ptr noundef %149, ptr noundef %150)
  %152 = icmp slt i32 %151, 0
  br i1 %152, label %153, label %168

153:                                              ; preds = %148
  br label %154

154:                                              ; preds = %153
  br label %155

155:                                              ; preds = %154
  br label %156

156:                                              ; preds = %155
  %157 = load i64, ptr @H5E_BTREE_g, align 8
  %158 = load i64, ptr @H5E_CANTCOPY_g, align 8
  %159 = call i32 (ptr, ptr, i32, i64, i64, ptr, ...) @H5E_printf_stack(ptr noundef @.str.1, ptr noundef @__func__.H5B2__remove_leaf_by_idx, i32 noundef 897, i64 noundef %157, i64 noundef %158, ptr noundef @.str.13)
  br label %160

160:                                              ; preds = %156
  store i8 1, ptr %19, align 1
  %161 = load i8, ptr %19, align 1
  %162 = trunc i8 %161 to i1
  %163 = zext i1 %162 to i8
  store i8 %163, ptr %19, align 1
  br label %164

164:                                              ; preds = %160
  br label %165

165:                                              ; preds = %164
  store i32 -1, ptr %18, align 4
  br label %237

166:                                              ; No predecessors!
  br label %167

167:                                              ; preds = %166
  br label %168

168:                                              ; preds = %167, %148
  %169 = load ptr, ptr %9, align 8
  %170 = getelementptr inbounds %struct.H5B2_node_ptr_t, ptr %169, i32 0, i32 0
  %171 = load i64, ptr %170, align 8
  store i64 %171, ptr %16, align 8
  br label %172

172:                                              ; preds = %168, %143
  %173 = load i32, ptr %12, align 4
  %174 = load ptr, ptr %15, align 8
  %175 = getelementptr inbounds %struct.H5B2_leaf_t, ptr %174, i32 0, i32 3
  %176 = load i16, ptr %175, align 8
  %177 = zext i16 %176 to i32
  %178 = icmp ult i32 %173, %177
  br i1 %178, label %179, label %216

179:                                              ; preds = %172
  %180 = load ptr, ptr %15, align 8
  %181 = getelementptr inbounds %struct.H5B2_leaf_t, ptr %180, i32 0, i32 2
  %182 = load ptr, ptr %181, align 8
  %183 = load ptr, ptr %8, align 8
  %184 = getelementptr inbounds %struct.H5B2_hdr_t, ptr %183, i32 0, i32 19
  %185 = load ptr, ptr %184, align 8
  %186 = load i32, ptr %12, align 4
  %187 = zext i32 %186 to i64
  %188 = getelementptr inbounds i64, ptr %185, i64 %187
  %189 = load i64, ptr %188, align 8
  %190 = getelementptr inbounds i8, ptr %182, i64 %189
  %191 = load ptr, ptr %15, align 8
  %192 = getelementptr inbounds %struct.H5B2_leaf_t, ptr %191, i32 0, i32 2
  %193 = load ptr, ptr %192, align 8
  %194 = load ptr, ptr %8, align 8
  %195 = getelementptr inbounds %struct.H5B2_hdr_t, ptr %194, i32 0, i32 19
  %196 = load ptr, ptr %195, align 8
  %197 = load i32, ptr %12, align 4
  %198 = add i32 %197, 1
  %199 = zext i32 %198 to i64
  %200 = getelementptr inbounds i64, ptr %196, i64 %199
  %201 = load i64, ptr %200, align 8
  %202 = getelementptr inbounds i8, ptr %193, i64 %201
  %203 = load ptr, ptr %8, align 8
  %204 = getelementptr inbounds %struct.H5B2_hdr_t, ptr %203, i32 0, i32 27
  %205 = load ptr, ptr %204, align 8
  %206 = getelementptr inbounds %struct.H5B2_class_t, ptr %205, i32 0, i32 2
  %207 = load i64, ptr %206, align 8
  %208 = load ptr, ptr %15, align 8
  %209 = getelementptr inbounds %struct.H5B2_leaf_t, ptr %208, i32 0, i32 3
  %210 = load i16, ptr %209, align 8
  %211 = zext i16 %210 to i32
  %212 = load i32, ptr %12, align 4
  %213 = sub i32 %211, %212
  %214 = zext i32 %213 to i64
  %215 = mul i64 %207, %214
  call void @llvm.memmove.p0.p0.i64(ptr align 1 %190, ptr align 1 %202, i64 %215, i1 false)
  br label %216

216:                                              ; preds = %179, %172
  %217 = load i32, ptr %17, align 4
  %218 = or i32 %217, 2
  store i32 %218, ptr %17, align 4
  br label %232

219:                                              ; preds = %133
  %220 = load i32, ptr %17, align 4
  %221 = or i32 %220, 1
  store i32 %221, ptr %17, align 4
  %222 = load ptr, ptr %8, align 8
  %223 = getelementptr inbounds %struct.H5B2_hdr_t, ptr %222, i32 0, i32 23
  %224 = load i8, ptr %223, align 8
  %225 = trunc i8 %224 to i1
  br i1 %225, label %229, label %226

226:                                              ; preds = %219
  %227 = load i32, ptr %17, align 4
  %228 = or i32 %227, 258
  store i32 %228, ptr %17, align 4
  br label %229

229:                                              ; preds = %226, %219
  %230 = load ptr, ptr %9, align 8
  %231 = getelementptr inbounds %struct.H5B2_node_ptr_t, ptr %230, i32 0, i32 0
  store i64 -1, ptr %231, align 8
  br label %232

232:                                              ; preds = %229, %216
  %233 = load ptr, ptr %9, align 8
  %234 = getelementptr inbounds %struct.H5B2_node_ptr_t, ptr %233, i32 0, i32 1
  %235 = load i16, ptr %234, align 8
  %236 = add i16 %235, -1
  store i16 %236, ptr %234, align 8
  br label %237

237:                                              ; preds = %232, %165, %129, %37
  %238 = load ptr, ptr %15, align 8
  %239 = icmp ne ptr %238, null
  br i1 %239, label %240, label %262

240:                                              ; preds = %237
  %241 = load ptr, ptr %8, align 8
  %242 = getelementptr inbounds %struct.H5B2_hdr_t, ptr %241, i32 0, i32 8
  %243 = load ptr, ptr %242, align 8
  %244 = load i64, ptr %16, align 8
  %245 = load ptr, ptr %15, align 8
  %246 = load i32, ptr %17, align 4
  %247 = call i32 @H5AC_unprotect(ptr noundef %243, ptr noundef @H5AC_BT2_LEAF, i64 noundef %244, ptr noundef %245, i32 noundef %246)
  %248 = icmp slt i32 %247, 0
  br i1 %248, label %249, label %262

249:                                              ; preds = %240
  br label %250

250:                                              ; preds = %249
  br label %251

251:                                              ; preds = %250
  br label %252

252:                                              ; preds = %251
  %253 = load i64, ptr @H5E_BTREE_g, align 8
  %254 = load i64, ptr @H5E_CANTUNPROTECT_g, align 8
  %255 = call i32 (ptr, ptr, i32, i64, i64, ptr, ...) @H5E_printf_stack(ptr noundef @.str.1, ptr noundef @__func__.H5B2__remove_leaf_by_idx, i32 noundef 925, i64 noundef %253, i64 noundef %254, ptr noundef @.str.25)
  br label %256

256:                                              ; preds = %252
  store i8 1, ptr %19, align 1
  %257 = load i8, ptr %19, align 1
  %258 = trunc i8 %257 to i1
  %259 = zext i1 %258 to i8
  store i8 %259, ptr %19, align 1
  br label %260

260:                                              ; preds = %256
  store i32 -1, ptr %18, align 4
  br label %261

261:                                              ; preds = %260
  br label %262

262:                                              ; preds = %261, %240, %237
  %263 = load i32, ptr %18, align 4
  ret i32 %263
}