; Function Attrs: nounwind uwtable
define range(i32 -1, 1) i32 @H5B2__remove_leaf_by_idx(ptr noundef %0, ptr noundef captures(none) %1, i32 noundef %2, ptr noundef %3, i32 noundef %4, ptr noundef readonly %5, ptr noundef %6) local_unnamed_addr #0 {
  %8 = tail call ptr @H5B2__protect_leaf(ptr noundef %0, ptr noundef %3, ptr noundef %1, i1 noundef zeroext false, i32 noundef 0)
  %9 = icmp eq ptr %8, null
  br i1 %9, label %92, label %10

10:                                               ; preds = %7
  %11 = load i64, ptr %1, align 8
  %.not = icmp eq i32 %2, 3
  br i1 %.not, label %31, label %12

12:                                               ; preds = %10
  %13 = and i32 %2, -3
  %14 = or i32 %4, %13
  %or.cond77 = icmp eq i32 %14, 0
  br i1 %or.cond77, label %15, label %20

15:                                               ; preds = %12
  %16 = getelementptr inbounds nuw i8, ptr %0, i64 376
  %17 = load ptr, ptr %16, align 8
  %.not72 = icmp eq ptr %17, null
  br i1 %.not72, label %20, label %18

18:                                               ; preds = %15
  %19 = tail call ptr @H5MM_xfree(ptr noundef nonnull %17) #5
  store ptr %19, ptr %16, align 8
  br label %20

20:                                               ; preds = %18, %15, %12
  %21 = getelementptr inbounds nuw i8, ptr %8, i64 264
  %22 = load i16, ptr %21, align 8
  %23 = zext i16 %22 to i32
  %24 = add nsw i32 %23, -1
  %25 = icmp eq i32 %4, %24
  %or.cond3 = icmp ult i32 %2, 2
  %or.cond78 = and i1 %or.cond3, %25
  br i1 %or.cond78, label %26, label %31

26:                                               ; preds = %20
  %27 = getelementptr inbounds nuw i8, ptr %0, i64 384
  %28 = load ptr, ptr %27, align 8
  %.not73 = icmp eq ptr %28, null
  br i1 %.not73, label %31, label %29

29:                                               ; preds = %26
  %30 = tail call ptr @H5MM_xfree(ptr noundef nonnull %28) #5
  store ptr %30, ptr %27, align 8
  br label %31

31:                                               ; preds = %20, %26, %29, %10
  %.not74 = icmp eq ptr %5, null
  br i1 %.not74, label %47, label %32

32:                                               ; preds = %31
  %33 = getelementptr inbounds nuw i8, ptr %8, i64 256
  %34 = load ptr, ptr %33, align 8
  %35 = getelementptr inbounds nuw i8, ptr %0, i64 360
  %36 = load ptr, ptr %35, align 8
  %37 = zext i32 %4 to i64
  %38 = getelementptr inbounds nuw i64, ptr %36, i64 %37
  %39 = load i64, ptr %38, align 8
  %40 = getelementptr inbounds i8, ptr %34, i64 %39
  %41 = tail call i32 %5(ptr noundef %40, ptr noundef %6) #5
  %42 = icmp slt i32 %41, 0
  br i1 %42, label %43, label %47

43:                                               ; preds = %32
  %44 = load i64, ptr @H5E_BTREE_g, align 8
  %45 = load i64, ptr @H5E_CANTDELETE_g, align 8
  %46 = tail call i32 (ptr, ptr, i32, i64, i64, ptr, ...) @H5E_printf_stack(ptr noundef nonnull @.str.1, ptr noundef nonnull @__func__.H5B2__remove_leaf_by_idx, i32 noundef 888, i64 noundef %44, i64 noundef %45, ptr noundef nonnull @.str.30) #5
  br label %96

47:                                               ; preds = %32, %31
  %48 = getelementptr inbounds nuw i8, ptr %8, i64 264
  %49 = load i16, ptr %48, align 8
  %50 = add i16 %49, -1
  store i16 %50, ptr %48, align 8
  %.not75 = icmp eq i16 %50, 0
  %51 = getelementptr inbounds nuw i8, ptr %0, i64 392
  %52 = load i8, ptr %51, align 8
  %53 = trunc i8 %52 to i1
  br i1 %.not75, label %87, label %54

54:                                               ; preds = %47
  br i1 %53, label %55, label %64

55:                                               ; preds = %54
  %56 = tail call fastcc i32 @H5B2__shadow_leaf(ptr noundef %8, ptr noundef nonnull %1)
  %57 = icmp slt i32 %56, 0
  br i1 %57, label %58, label %62

58:                                               ; preds = %55
  %59 = load i64, ptr @H5E_BTREE_g, align 8
  %60 = load i64, ptr @H5E_CANTCOPY_g, align 8
  %61 = tail call i32 (ptr, ptr, i32, i64, i64, ptr, ...) @H5E_printf_stack(ptr noundef nonnull @.str.1, ptr noundef nonnull @__func__.H5B2__remove_leaf_by_idx, i32 noundef 897, i64 noundef %59, i64 noundef %60, ptr noundef nonnull @.str.13) #5
  br label %96

62:                                               ; preds = %55
  %63 = load i64, ptr %1, align 8
  %.pre = load i16, ptr %48, align 8
  br label %64

64:                                               ; preds = %62, %54
  %65 = phi i16 [ %.pre, %62 ], [ %50, %54 ]
  %.162 = phi i64 [ %63, %62 ], [ %11, %54 ]
  %66 = zext i16 %65 to i32
  %67 = icmp ult i32 %4, %66
  br i1 %67, label %68, label %88

68:                                               ; preds = %64
  %69 = getelementptr inbounds nuw i8, ptr %8, i64 256
  %70 = load ptr, ptr %69, align 8
  %71 = getelementptr inbounds nuw i8, ptr %0, i64 360
  %72 = load ptr, ptr %71, align 8
  %73 = zext nneg i32 %4 to i64
  %74 = getelementptr i64, ptr %72, i64 %73
  %75 = load i64, ptr %74, align 8
  %76 = getelementptr inbounds i8, ptr %70, i64 %75
  %77 = getelementptr i8, ptr %74, i64 8
  %78 = load i64, ptr %77, align 8
  %79 = getelementptr inbounds i8, ptr %70, i64 %78
  %80 = getelementptr inbounds nuw i8, ptr %0, i64 424
  %81 = load ptr, ptr %80, align 8
  %82 = getelementptr inbounds nuw i8, ptr %81, i64 16
  %83 = load i64, ptr %82, align 8
  %84 = sub nuw nsw i32 %66, %4
  %85 = zext nneg i32 %84 to i64
  %86 = mul i64 %83, %85
  tail call void @llvm.memmove.p0.p0.i64(ptr align 1 %76, ptr align 1 %79, i64 %86, i1 false)
  br label %88

87:                                               ; preds = %47
  %spec.select = select i1 %53, i32 1, i32 259
  store i64 -1, ptr %1, align 8
  br label %88

88:                                               ; preds = %64, %68, %87
  %.263 = phi i64 [ %11, %87 ], [ %.162, %68 ], [ %.162, %64 ]
  %.160 = phi i32 [ %spec.select, %87 ], [ 2, %68 ], [ 2, %64 ]
  %89 = getelementptr inbounds nuw i8, ptr %1, i64 8
  %90 = load i16, ptr %89, align 8
  %91 = add i16 %90, -1
  store i16 %91, ptr %89, align 8
  br label %96

92:                                               ; preds = %7
  %93 = load i64, ptr @H5E_BTREE_g, align 8
  %94 = load i64, ptr @H5E_CANTPROTECT_g, align 8
  %95 = tail call i32 (ptr, ptr, i32, i64, i64, ptr, ...) @H5E_printf_stack(ptr noundef nonnull @.str.1, ptr noundef nonnull @__func__.H5B2__remove_leaf_by_idx, i32 noundef 860, i64 noundef %93, i64 noundef %94, ptr noundef nonnull @.str.11) #5
  br label %105

96:                                               ; preds = %88, %58, %43
  %.061.ph = phi i64 [ %.263, %88 ], [ %11, %58 ], [ %11, %43 ]
  %.059.ph = phi i32 [ %.160, %88 ], [ 0, %58 ], [ 0, %43 ]
  %.0.ph = phi i32 [ 0, %88 ], [ -1, %58 ], [ -1, %43 ]
  %97 = getelementptr inbounds nuw i8, ptr %0, i64 288
  %98 = load ptr, ptr %97, align 8
  %99 = tail call i32 @H5AC_unprotect(ptr noundef %98, ptr noundef nonnull @H5AC_BT2_LEAF, i64 noundef %.061.ph, ptr noundef nonnull %8, i32 noundef %.059.ph) #5
  %100 = icmp slt i32 %99, 0
  br i1 %100, label %101, label %105

101:                                              ; preds = %96
  %102 = load i64, ptr @H5E_BTREE_g, align 8
  %103 = load i64, ptr @H5E_CANTUNPROTECT_g, align 8
  %104 = tail call i32 (ptr, ptr, i32, i64, i64, ptr, ...) @H5E_printf_stack(ptr noundef nonnull @.str.1, ptr noundef nonnull @__func__.H5B2__remove_leaf_by_idx, i32 noundef 925, i64 noundef %102, i64 noundef %103, ptr noundef nonnull @.str.25) #5
  br label %105

105:                                              ; preds = %92, %101, %96
  %.1 = phi i32 [ -1, %101 ], [ %.0.ph, %96 ], [ -1, %92 ]
  ret i32 %.1
}